target datalayout = "e-m:e-p270:32:32-p271:32:32-p272:64:64-i64:64-i128:128-f80:128-n8:16:32:64-S128"
target triple = "x86_64-pc-linux-gnu"

%class.LibRaw = type { ptr, %struct.libraw_data_t, ptr, %struct.libraw_internal_data_t, [2048 x %struct.decode], ptr, ptr, [10 x %struct.tiff_ifd_t], %class.libraw_memmgr, %struct.libraw_callbacks_t, { i64, i64 }, { i64, i64 }, { i64, i64 }, ptr, ptr, ptr, i64, ptr, ptr, ptr, ptr }
%struct.libraw_data_t = type { ptr, %struct.libraw_image_sizes_t, %struct.libraw_iparams_t, %struct.libraw_lensinfo_t, %struct.libraw_makernotes_t, %struct.libraw_shootinginfo_t, %struct.libraw_output_params_t, %struct.libraw_raw_unpack_params_t, i32, i32, %struct.libraw_colordata_t, %struct.libraw_imgother_t, %struct.libraw_thumbnail_t, %struct.libraw_thumbnail_list_t, %struct.libraw_rawdata_t, ptr }
%struct.libraw_image_sizes_t = type { i16, i16, i16, i16, i16, i16, i16, i16, i32, double, i32, [8 x [4 x i32]], i16, [2 x %struct.libraw_raw_inset_crop_t] }
%struct.libraw_raw_inset_crop_t = type { i16, i16, i16, i16 }
%struct.libraw_iparams_t = type { [4 x i8], [64 x i8], [64 x i8], [64 x i8], [64 x i8], [64 x i8], i32, i32, i32, i32, i32, i32, [6 x [6 x i8]], [6 x [6 x i8]], [5 x i8], i32, ptr }
%struct.libraw_lensinfo_t = type { float, float, float, float, float, [128 x i8], [128 x i8], [128 x i8], [128 x i8], i16, %struct.libraw_nikonlens_t, %struct.libraw_dnglens_t, %struct.libraw_makernotes_lens_t }
%struct.libraw_nikonlens_t = type { float, i8, i8, i8, i8 }
%struct.libraw_dnglens_t = type { float, float, float, float }
%struct.libraw_makernotes_lens_t = type { i64, [128 x i8], i16, i16, i64, i16, i16, [64 x i8], i16, [16 x i8], [16 x i8], float, float, float, float, float, float, float, float, float, float, float, float, float, float, float, i64, [128 x i8], i64, [128 x i8], i64, [128 x i8], i16, float }
%struct.libraw_makernotes_t = type { %struct.libraw_canon_makernotes_t, %struct.libraw_nikon_makernotes_t, %struct.libraw_hasselblad_makernotes_t, %struct.libraw_fuji_info_t, %struct.libraw_olympus_makernotes_t, %struct.libraw_sony_info_t, %struct.libraw_kodak_makernotes_t, %struct.libraw_panasonic_makernotes_t, %struct.libraw_pentax_makernotes_t, %struct.libraw_p1_makernotes_t, %struct.libraw_ricoh_makernotes_t, %struct.libraw_samsung_makernotes_t, %struct.libraw_metadata_common_t }
%struct.libraw_canon_makernotes_t = type { i32, i32, i32, i32, [4 x i32], i32, [4 x i32], i16, i16, i8, i16, i16, i16, i16, i16, i16, i16, i16, i16, i16, i16, i16, i16, i32, float, i16, i16, i16, i32, i16, i32, i32, i16, i32, %struct.libraw_area_t, %struct.libraw_area_t, %struct.libraw_area_t, %struct.libraw_area_t, %struct.libraw_area_t, [2 x i16] }
%struct.libraw_area_t = type { i16, i16, i16, i16 }
%struct.libraw_nikon_makernotes_t = type { double, i16, i16, [7 x i8], i8, i8, [13 x i8], [20 x i8], [4 x i8], [4 x i8], [4 x i8], i8, i8, i8, i8, i8, [2 x i8], i8, i8, i8, i8, i8, [4 x i8], [4 x i8], i8, i16, i32, i32, i32, i32, [4 x double], i8, i8, i8, i32, i32, i32, i8, [4 x i16], i16, %struct.libraw_sensor_highspeed_crop_t, i16, i16, i16, i32, [20 x i8], [20 x i8], i32, i16, double, double, double }
%struct.libraw_sensor_highspeed_crop_t = type { i16, i16, i16, i16 }
%struct.libraw_hasselblad_makernotes_t = type { i32, double, [8 x i8], [64 x i8], [64 x i8], i32, i32, i32, i32, [32 x i8], [64 x i8], i32, [2 x i32], [2 x i32], [4 x [3 x double]] }
%struct.libraw_fuji_info_t = type { float, i16, i16, i16, i16, i16, i16, i16, i16, [33 x i8], [33 x i8], float, i16, i16, [2 x i16], i16, i32, i32, i16, [3 x i16], i16, i16, i16, i16, i16, i32, i16, [13 x i8], [5 x i8], [5 x i8], i32, i16, i32, i16, [9 x i16], [32 x i32], i32, i32, i32, [2 x float], i32 }
%struct.libraw_olympus_makernotes_t = type { [6 x i8], i16, [2 x i32], [5 x i16], i16, [2 x i16], i16, i16, [64 x i32], [5 x double], i16, i8, [3 x i16], [3 x i32], i16, i16, i16, i16, double, [4 x i16], [2 x i32], i8, i32, i16, i16 }
%struct.libraw_sony_info_t = type { i16, i8, i8, i32, i8, i32, i8, i8, i16, [2 x i16], i8, i8, i16, [10 x i8], i8, i8, [4 x i16], i16, i8, i8, i8, i16, i32, i16, [2 x i16], i16, i16, i16, i16, i16, i16, i16, i32, float, i16, i32, i32, i16, [20 x i8], i32, i16, i32, i8, i8, i16, i16, i16, i16, i16, i16, i16, i16, i16, i32, i16, [16 x i8], float }
%struct.libraw_kodak_makernotes_t = type { i16, i16, i16, i16, i16, i16, [3 x [3 x float]], [3 x [3 x float]], [3 x [3 x float]], [3 x [3 x float]], [3 x [3 x float]], [3 x [3 x float]], i16, i16, i16, i16, float, float }
%struct.libraw_panasonic_makernotes_t = type { i16, i16, [8 x float], i32, float, [3 x i32], i16, i16, i32, i32 }
%struct.libraw_pentax_makernotes_t = type { [4 x i8], [2 x i16], [2 x i16], i16, i32, i32, i16, i16, i8, i8, i16 }
%struct.libraw_p1_makernotes_t = type { [64 x i8], [64 x i8], [256 x i8], [64 x i8] }
%struct.libraw_ricoh_makernotes_t = type { i16, [2 x i32], [2 x i32], i16, i32, i32, i32, i32, i16, i16, i16, i16, i16, i16, double, double }
%struct.libraw_samsung_makernotes_t = type { [4 x i32], [4 x i32], [2 x i32], [11 x i32], double, i32, [32 x i8] }
%struct.libraw_metadata_common_t = type { float, float, float, float, float, float, float, float, float, float, float, float, float, float, float, float, i16, [128 x i8], float, [4 x %struct.libraw_afinfo_item_t], i32 }
%struct.libraw_afinfo_item_t = type { i32, i16, i32, i32, ptr }
%struct.libraw_shootinginfo_t = type { i16, i16, i16, i16, i16, i16, i16, [64 x i8], [64 x i8] }
%struct.libraw_output_params_t = type { [4 x i32], [4 x i32], [4 x double], [6 x double], [4 x float], float, float, i32, i32, i32, i32, i32, i32, i32, ptr, ptr, ptr, ptr, i32, i32, i32, i32, i32, i32, [4 x i32], i32, i32, float, float, i32, i32, i32, i32, i32, i32, i32, i32, float, float, i32, i32 }
%struct.libraw_raw_unpack_params_t = type { i32, i32, i32, i32, i32, i32, i32, float, [5 x i8], ptr }
%struct.libraw_colordata_t = type { [65536 x i16], [4104 x i32], i32, i32, i32, [4 x i64], float, float, [8 x [8 x i16]], [4 x float], [4 x float], [3 x [4 x float]], [3 x [4 x float]], [3 x [4 x float]], [4 x [3 x float]], %struct.ph1_t, float, float, [64 x i8], [64 x i8], [64 x i8], [64 x i8], [17 x i8], [64 x i8], ptr, i32, [8 x i32], [2 x %struct.libraw_dng_color_t], %struct.libraw_dng_levels_t, [256 x [4 x i32]], [64 x [5 x float]], i32, [2 x %struct.libraw_P1_color_t], i32, i32 }
%struct.ph1_t = type { i32, i32, i32, i32, i32, i32, i32, i32, float }
%struct.libraw_dng_color_t = type { i32, i16, [4 x [4 x float]], [4 x [3 x float]], [3 x [4 x float]] }
%struct.libraw_dng_levels_t = type { i32, [4104 x i32], i32, [4104 x float], float, [4 x i32], [4 x i16], [4 x float], i32, [4 x float], [4 x float], float, float }
%struct.libraw_P1_color_t = type { [9 x float] }
%struct.libraw_imgother_t = type { float, float, float, float, i64, i32, [32 x i32], %struct.libraw_gps_info_t, [512 x i8], [64 x i8], [4 x float] }
%struct.libraw_gps_info_t = type { [3 x float], [3 x float], [3 x float], float, i8, i8, i8, i8, i8 }
%struct.libraw_thumbnail_t = type { i32, i16, i16, i32, i32, ptr }
%struct.libraw_thumbnail_list_t = type { i32, [8 x %struct.libraw_thumbnail_item_t] }
%struct.libraw_thumbnail_item_t = type { i32, i16, i16, i16, i32, i32, i64 }
%struct.libraw_rawdata_t = type { ptr, ptr, ptr, ptr, ptr, ptr, ptr, ptr, ptr, %struct.libraw_iparams_t, %struct.libraw_image_sizes_t, %struct.libraw_internal_output_params_t, %struct.libraw_colordata_t }
%struct.libraw_internal_output_params_t = type { i32, i32, i32, i16, i16 }
%struct.libraw_internal_data_t = type { %struct.internal_data_t, %struct.libraw_internal_output_params_t, %struct.output_data_t, %struct.identify_data_t, %struct.unpacker_data_t }
%struct.internal_data_t = type { ptr, ptr, i32, ptr, i64, i64, [4 x i32] }
%struct.output_data_t = type { ptr, ptr }
%struct.identify_data_t = type { i32, i64, i64, i32, i32, i32 }
%struct.unpacker_data_t = type { i16, [4 x i16], [3 x i16], i32, i64, i64, i64, i64, i64, i64, i32, i32, i32, i32, i32, i32, i32, i32, i32, i32, i32, i32, i32, i32, i32, i32, i32, i64, i32, i32, i32, i32, i32, i32, i32, i32, i32, %struct.pana8_tags_t, [16 x %struct.crx_data_header_t], i32, i32, i16, i16, i32, i32, i32, i32, i32, i32, i32, [20 x i32], i16 }
%struct.pana8_tags_t = type { [6 x i32], [6 x i16], i16, [4 x i16], [17 x i16], [17 x i16], [17 x i16], i16, i16, [5 x i64], [5 x i16], [5 x i32], [5 x i16], [5 x i16] }
%struct.crx_data_header_t = type { i32, i32, i32, i32, i32, i32, i32, i32, i32, i32, i32, i32, i32, i32, i32, i64, i32, ptr, i32, i32, i32, ptr, i32, ptr }
%struct.decode = type { [2 x ptr], i32 }
%struct.tiff_ifd_t = type { i32, i32, i32, i32, i32, i32, i32, i32, i32, i32, i32, i32, i32, i32, i32, ptr, i32, ptr, i32, i32, i32, i32, i32, i32, i32, float, i64, i64, i32, [2 x %struct.libraw_dng_color_t], %struct.libraw_dng_levels_t, i32 }
%class.libraw_memmgr = type <{ ptr, i32, [4 x i8] }>
%struct.libraw_callbacks_t = type { ptr, ptr, ptr, ptr, ptr, ptr, ptr, ptr, ptr, ptr, ptr, ptr, ptr, ptr, ptr, ptr, ptr }
%struct.crx_sample_to_chunk_t = type { i32, i32, i32 }

; Function Attrs: mustprogress nounwind uwtable
define noundef i32 @_ZN6LibRaw14selectCRXFrameEsj(ptr noundef nonnull align 8 dereferenceable(767680) %0, i16 noundef signext %1, i32 noundef %2) #0 align 2 {
  %4 = alloca i32, align 4
  %5 = alloca ptr, align 8
  %6 = alloca i16, align 2
  %7 = alloca i32, align 4
  %8 = alloca i32, align 4
  %9 = alloca i32, align 4
  %10 = alloca i32, align 4
  %11 = alloca ptr, align 8
  %12 = alloca i32, align 4
  %13 = alloca i32, align 4
  %14 = alloca i64, align 8
  %15 = alloca i32, align 4
  store ptr %0, ptr %5, align 8, !tbaa !6
  store i16 %1, ptr %6, align 2, !tbaa !11
  store i32 %2, ptr %7, align 4, !tbaa !13
  %16 = load ptr, ptr %5, align 8
  call void @llvm.lifetime.start.p0(i64 4, ptr %8) #8
  call void @llvm.lifetime.start.p0(i64 4, ptr %9) #8
  store i32 0, ptr %9, align 4, !tbaa !13
  call void @llvm.lifetime.start.p0(i64 4, ptr %10) #8
  store i32 0, ptr %10, align 4, !tbaa !13
  call void @llvm.lifetime.start.p0(i64 8, ptr %11) #8
  %17 = getelementptr inbounds nuw %class.LibRaw, ptr %16, i32 0, i32 3
  %18 = getelementptr inbounds nuw %struct.libraw_internal_data_t, ptr %17, i32 0, i32 4
  %19 = getelementptr inbounds nuw %struct.unpacker_data_t, ptr %18, i32 0, i32 38
  %20 = load i16, ptr %6, align 2, !tbaa !11
  %21 = sext i16 %20 to i64
  %22 = getelementptr inbounds [16 x %struct.crx_data_header_t], ptr %19, i64 0, i64 %21
  store ptr %22, ptr %11, align 8, !tbaa !15
  %23 = load i32, ptr %7, align 4, !tbaa !13
  %24 = load ptr, ptr %11, align 8, !tbaa !15
  %25 = getelementptr inbounds nuw %struct.crx_data_header_t, ptr %24, i32 0, i32 19
  %26 = load i32, ptr %25, align 4, !tbaa !16
  %27 = icmp uge i32 %23, %26
  br i1 %27, label %28, label %29

28:                                               ; preds = %3
  store i32 -1, ptr %4, align 4
  store i32 1, ptr %12, align 4
  br label %140

29:                                               ; preds = %3
  call void @llvm.lifetime.start.p0(i64 4, ptr %13) #8
  store i32 0, ptr %13, align 4, !tbaa !13
  br label %30

30:                                               ; preds = %134, %29
  %31 = load i32, ptr %13, align 4, !tbaa !13
  %32 = load ptr, ptr %11, align 8, !tbaa !15
  %33 = getelementptr inbounds nuw %struct.crx_data_header_t, ptr %32, i32 0, i32 22
  %34 = load i32, ptr %33, align 8, !tbaa !21
  %35 = icmp ult i32 %31, %34
  br i1 %35, label %37, label %36

36:                                               ; preds = %30
  store i32 2, ptr %12, align 4
  br label %137

37:                                               ; preds = %30
  call void @llvm.lifetime.start.p0(i64 8, ptr %14) #8
  %38 = load ptr, ptr %11, align 8, !tbaa !15
  %39 = getelementptr inbounds nuw %struct.crx_data_header_t, ptr %38, i32 0, i32 23
  %40 = load ptr, ptr %39, align 8, !tbaa !22
  %41 = load i32, ptr %13, align 4, !tbaa !13
  %42 = sext i32 %41 to i64
  %43 = getelementptr inbounds i64, ptr %40, i64 %42
  %44 = load i64, ptr %43, align 8, !tbaa !23
  store i64 %44, ptr %14, align 8, !tbaa !24
  br label %45

45:                                               ; preds = %66, %37
  %46 = load i32, ptr %9, align 4, !tbaa !13
  %47 = load ptr, ptr %11, align 8, !tbaa !15
  %48 = getelementptr inbounds nuw %struct.crx_data_header_t, ptr %47, i32 0, i32 18
  %49 = load i32, ptr %48, align 8, !tbaa !26
  %50 = icmp ult i32 %46, %49
  br i1 %50, label %51, label %64

51:                                               ; preds = %45
  %52 = load i32, ptr %13, align 4, !tbaa !13
  %53 = add nsw i32 %52, 1
  %54 = load ptr, ptr %11, align 8, !tbaa !15
  %55 = getelementptr inbounds nuw %struct.crx_data_header_t, ptr %54, i32 0, i32 17
  %56 = load ptr, ptr %55, align 8, !tbaa !27
  %57 = load i32, ptr %9, align 4, !tbaa !13
  %58 = add i32 %57, 1
  %59 = zext i32 %58 to i64
  %60 = getelementptr inbounds nuw %struct.crx_sample_to_chunk_t, ptr %56, i64 %59
  %61 = getelementptr inbounds nuw %struct.crx_sample_to_chunk_t, ptr %60, i32 0, i32 0
  %62 = load i32, ptr %61, align 4, !tbaa !28
  %63 = icmp eq i32 %53, %62
  br label %64

64:                                               ; preds = %51, %45
  %65 = phi i1 [ false, %45 ], [ %63, %51 ]
  br i1 %65, label %66, label %69

66:                                               ; preds = %64
  %67 = load i32, ptr %9, align 4, !tbaa !13
  %68 = add i32 %67, 1
  store i32 %68, ptr %9, align 4, !tbaa !13
  br label %45, !llvm.loop !30

69:                                               ; preds = %64
  call void @llvm.lifetime.start.p0(i64 4, ptr %15) #8
  store i32 0, ptr %15, align 4, !tbaa !13
  br label %70

70:                                               ; preds = %125, %69
  %71 = load i32, ptr %15, align 4, !tbaa !13
  %72 = load ptr, ptr %11, align 8, !tbaa !15
  %73 = getelementptr inbounds nuw %struct.crx_data_header_t, ptr %72, i32 0, i32 17
  %74 = load ptr, ptr %73, align 8, !tbaa !27
  %75 = load i32, ptr %9, align 4, !tbaa !13
  %76 = zext i32 %75 to i64
  %77 = getelementptr inbounds nuw %struct.crx_sample_to_chunk_t, ptr %74, i64 %76
  %78 = getelementptr inbounds nuw %struct.crx_sample_to_chunk_t, ptr %77, i32 0, i32 1
  %79 = load i32, ptr %78, align 4, !tbaa !32
  %80 = icmp ult i32 %71, %79
  br i1 %80, label %82, label %81

81:                                               ; preds = %70
  store i32 7, ptr %12, align 4
  br label %128

82:                                               ; preds = %70
  %83 = load i32, ptr %10, align 4, !tbaa !13
  %84 = load ptr, ptr %11, align 8, !tbaa !15
  %85 = getelementptr inbounds nuw %struct.crx_data_header_t, ptr %84, i32 0, i32 19
  %86 = load i32, ptr %85, align 4, !tbaa !16
  %87 = icmp ugt i32 %83, %86
  br i1 %87, label %88, label %89

88:                                               ; preds = %82
  store i32 -1, ptr %4, align 4
  store i32 1, ptr %12, align 4
  br label %128

89:                                               ; preds = %82
  %90 = load ptr, ptr %11, align 8, !tbaa !15
  %91 = getelementptr inbounds nuw %struct.crx_data_header_t, ptr %90, i32 0, i32 20
  %92 = load i32, ptr %91, align 8, !tbaa !33
  %93 = icmp ugt i32 %92, 0
  br i1 %93, label %94, label %98

94:                                               ; preds = %89
  %95 = load ptr, ptr %11, align 8, !tbaa !15
  %96 = getelementptr inbounds nuw %struct.crx_data_header_t, ptr %95, i32 0, i32 20
  %97 = load i32, ptr %96, align 8, !tbaa !33
  br label %106

98:                                               ; preds = %89
  %99 = load ptr, ptr %11, align 8, !tbaa !15
  %100 = getelementptr inbounds nuw %struct.crx_data_header_t, ptr %99, i32 0, i32 21
  %101 = load ptr, ptr %100, align 8, !tbaa !34
  %102 = load i32, ptr %10, align 4, !tbaa !13
  %103 = zext i32 %102 to i64
  %104 = getelementptr inbounds nuw i32, ptr %101, i64 %103
  %105 = load i32, ptr %104, align 4, !tbaa !13
  br label %106

106:                                              ; preds = %98, %94
  %107 = phi i32 [ %97, %94 ], [ %105, %98 ]
  store i32 %107, ptr %8, align 4, !tbaa !13
  %108 = load i32, ptr %10, align 4, !tbaa !13
  %109 = load i32, ptr %7, align 4, !tbaa !13
  %110 = icmp eq i32 %108, %109
  br i1 %110, label %111, label %118

111:                                              ; preds = %106
  %112 = load i64, ptr %14, align 8, !tbaa !24
  %113 = load ptr, ptr %11, align 8, !tbaa !15
  %114 = getelementptr inbounds nuw %struct.crx_data_header_t, ptr %113, i32 0, i32 15
  store i64 %112, ptr %114, align 8, !tbaa !35
  %115 = load i32, ptr %8, align 4, !tbaa !13
  %116 = load ptr, ptr %11, align 8, !tbaa !15
  %117 = getelementptr inbounds nuw %struct.crx_data_header_t, ptr %116, i32 0, i32 14
  store i32 %115, ptr %117, align 8, !tbaa !36
  store i32 0, ptr %4, align 4
  store i32 1, ptr %12, align 4
  br label %128

118:                                              ; preds = %106
  %119 = load i32, ptr %8, align 4, !tbaa !13
  %120 = zext i32 %119 to i64
  %121 = load i64, ptr %14, align 8, !tbaa !24
  %122 = add nsw i64 %121, %120
  store i64 %122, ptr %14, align 8, !tbaa !24
  %123 = load i32, ptr %10, align 4, !tbaa !13
  %124 = add i32 %123, 1
  store i32 %124, ptr %10, align 4, !tbaa !13
  br label %125

125:                                              ; preds = %118
  %126 = load i32, ptr %15, align 4, !tbaa !13
  %127 = add nsw i32 %126, 1
  store i32 %127, ptr %15, align 4, !tbaa !13
  br label %70, !llvm.loop !37

128:                                              ; preds = %111, %88, %81
  call void @llvm.lifetime.end.p0(i64 4, ptr %15) #8
  %129 = load i32, ptr %12, align 4
  switch i32 %129, label %131 [
    i32 7, label %130
  ]

130:                                              ; preds = %128
  store i32 0, ptr %12, align 4
  br label %131

131:                                              ; preds = %130, %128
  call void @llvm.lifetime.end.p0(i64 8, ptr %14) #8
  %132 = load i32, ptr %12, align 4
  switch i32 %132, label %137 [
    i32 0, label %133
  ]

133:                                              ; preds = %131
  br label %134

134:                                              ; preds = %133
  %135 = load i32, ptr %13, align 4, !tbaa !13
  %136 = add nsw i32 %135, 1
  store i32 %136, ptr %13, align 4, !tbaa !13
  br label %30, !llvm.loop !38

137:                                              ; preds = %131, %36
  call void @llvm.lifetime.end.p0(i64 4, ptr %13) #8
  %138 = load i32, ptr %12, align 4
  switch i32 %138, label %140 [
    i32 2, label %139
  ]

139:                                              ; preds = %137
  store i32 -1, ptr %4, align 4
  store i32 1, ptr %12, align 4
  br label %140

140:                                              ; preds = %139, %137, %28
  call void @llvm.lifetime.end.p0(i64 8, ptr %11) #8
  call void @llvm.lifetime.end.p0(i64 4, ptr %10) #8
  call void @llvm.lifetime.end.p0(i64 4, ptr %9) #8
  call void @llvm.lifetime.end.p0(i64 4, ptr %8) #8
  %141 = load i32, ptr %4, align 4
  ret i32 %141
}