; Function Attrs: mustprogress nofree norecurse nosync nounwind memory(read, argmem: readwrite, inaccessiblemem: none) uwtable
define noundef range(i32 -1, 1) i32 @_ZN6LibRaw14selectCRXFrameEsj(ptr noundef nonnull align 8 captures(none) dereferenceable(767680) %0, i16 noundef signext %1, i32 noundef %2) local_unnamed_addr #0 align 2 {
  %4 = getelementptr inbounds nuw i8, ptr %0, i64 381992
  %5 = sext i16 %1 to i64
  %6 = getelementptr inbounds [16 x %struct.crx_data_header_t], ptr %4, i64 0, i64 %5
  %7 = getelementptr inbounds nuw i8, ptr %6, i64 92
  %8 = load i32, ptr %7, align 4, !tbaa !6
  %.not = icmp ult i32 %2, %8
  br i1 %.not, label %.preheader, label %.thread

.preheader:                                       ; preds = %3
  %9 = getelementptr inbounds nuw i8, ptr %6, i64 112
  %10 = load i32, ptr %9, align 8, !tbaa !15
  %.not5263.not = icmp eq i32 %10, 0
  br i1 %.not5263.not, label %.thread, label %.lr.ph67

.lr.ph67:                                         ; preds = %.preheader
  %11 = getelementptr inbounds nuw i8, ptr %6, i64 120
  %12 = load ptr, ptr %11, align 8, !tbaa !16
  %13 = getelementptr inbounds nuw i8, ptr %6, i64 80
  %14 = getelementptr inbounds nuw i8, ptr %6, i64 88
  %15 = load i32, ptr %14, align 8, !tbaa !17
  %16 = load ptr, ptr %13, align 8, !tbaa !18
  %17 = getelementptr inbounds nuw i8, ptr %6, i64 96
  %18 = getelementptr inbounds nuw i8, ptr %6, i64 104
  %wide.trip.count = zext i32 %10 to i64
  br label %19

19:                                               ; preds = %.lr.ph67, %._crit_edge
  %indvars.iv76 = phi i64 [ 0, %.lr.ph67 ], [ %indvars.iv.next77, %._crit_edge ]
  %.04465 = phi i32 [ 0, %.lr.ph67 ], [ %.145.lcssa, %._crit_edge ]
  %.04664 = phi i32 [ 0, %.lr.ph67 ], [ %.147.lcssa, %._crit_edge ]
  %20 = getelementptr inbounds nuw i64, ptr %12, i64 %indvars.iv76
  %21 = load i64, ptr %20, align 8, !tbaa !19
  %indvars.iv.next77 = add nuw nsw i64 %indvars.iv76, 1
  %22 = zext i32 %.04664 to i64
  %umax = tail call i32 @llvm.umax.i32(i32 %.04664, i32 %15)
  %23 = tail call i32 @llvm.umax.i32(i32 %.04664, i32 %15)
  %umax74 = zext i32 %23 to i64
  br label %24

24:                                               ; preds = %25, %19
  %indvars.iv = phi i64 [ %indvars.iv.next, %25 ], [ %22, %19 ]
  %exitcond.not = icmp eq i64 %indvars.iv, %umax74
  br i1 %exitcond.not, label %.critedge, label %25

25:                                               ; preds = %24
  %indvars.iv.next = add nuw nsw i64 %indvars.iv, 1
  %26 = getelementptr inbounds nuw %struct.crx_sample_to_chunk_t, ptr %16, i64 %indvars.iv.next
  %27 = load i32, ptr %26, align 4, !tbaa !20
  %28 = zext i32 %27 to i64
  %29 = icmp eq i64 %indvars.iv.next77, %28
  br i1 %29, label %24, label %.critedge.split.loop.exit84, !llvm.loop !22

.critedge.split.loop.exit84:                      ; preds = %25
  %30 = trunc nuw i64 %indvars.iv to i32
  br label %.critedge

.critedge:                                        ; preds = %24, %.critedge.split.loop.exit84
  %.147.lcssa = phi i32 [ %30, %.critedge.split.loop.exit84 ], [ %umax, %24 ]
  %31 = zext i32 %.147.lcssa to i64
  %32 = getelementptr inbounds nuw %struct.crx_sample_to_chunk_t, ptr %16, i64 %31, i32 1
  %33 = load i32, ptr %32, align 4, !tbaa !24
  %.not5159.not = icmp eq i32 %33, 0
  br i1 %.not5159.not, label %._crit_edge, label %.lr.ph.preheader

.lr.ph.preheader:                                 ; preds = %.critedge
  %34 = add i32 %.04465, %33
  br label %.lr.ph

.lr.ph:                                           ; preds = %.lr.ph.preheader, %49
  %.062 = phi i32 [ %53, %49 ], [ 0, %.lr.ph.preheader ]
  %.03961 = phi i64 [ %51, %49 ], [ %21, %.lr.ph.preheader ]
  %.14560 = phi i32 [ %52, %49 ], [ %.04465, %.lr.ph.preheader ]
  %35 = icmp ugt i32 %.14560, %8
  br i1 %35, label %.thread, label %36

36:                                               ; preds = %.lr.ph
  %37 = load i32, ptr %17, align 8, !tbaa !25
  %.not50 = icmp eq i32 %37, 0
  br i1 %.not50, label %38, label %43

38:                                               ; preds = %36
  %39 = load ptr, ptr %18, align 8, !tbaa !26
  %40 = zext i32 %.14560 to i64
  %41 = getelementptr inbounds nuw i32, ptr %39, i64 %40
  %42 = load i32, ptr %41, align 4, !tbaa !27
  br label %43

43:                                               ; preds = %36, %38
  %44 = phi i32 [ %42, %38 ], [ %37, %36 ]
  %45 = icmp eq i32 %.14560, %2
  br i1 %45, label %46, label %49

46:                                               ; preds = %43
  %47 = getelementptr inbounds nuw i8, ptr %6, i64 64
  store i64 %.03961, ptr %47, align 8, !tbaa !28
  %48 = getelementptr inbounds nuw i8, ptr %6, i64 56
  store i32 %44, ptr %48, align 8, !tbaa !29
  br label %.thread

49:                                               ; preds = %43
  %50 = zext i32 %44 to i64
  %51 = add nsw i64 %.03961, %50
  %52 = add i32 %.14560, 1
  %53 = add nuw i32 %.062, 1
  %exitcond75.not = icmp eq i32 %53, %33
  br i1 %exitcond75.not, label %._crit_edge, label %.lr.ph, !llvm.loop !30

._crit_edge:                                      ; preds = %49, %.critedge
  %.145.lcssa = phi i32 [ %.04465, %.critedge ], [ %34, %49 ]
  %exitcond79.not = icmp eq i64 %indvars.iv.next77, %wide.trip.count
  br i1 %exitcond79.not, label %.thread, label %19, !llvm.loop !31

.thread:                                          ; preds = %._crit_edge, %.lr.ph, %.preheader, %46, %3
  %.042 = phi i32 [ -1, %3 ], [ 0, %46 ], [ -1, %.preheader ], [ -1, %.lr.ph ], [ -1, %._crit_edge ]
  ret i32 %.042
}